   1               		.file	"net.c"
   2               	__SREG__ = 0x3f
   3               	__SP_H__ = 0x3e
   4               	__SP_L__ = 0x3d
   5               	__CCP__ = 0x34
   6               	__tmp_reg__ = 0
   7               	__zero_reg__ = 1
  10               		.text
  11               	.Ltext0:
 416               	.global	htons
 418               	htons:
 419               		.stabd	46,0,0
   1:../../freeRtos/Lib/net/net.c **** /**
   2:../../freeRtos/Lib/net/net.c ****  * @file          net.c 
   3:../../freeRtos/Lib/net/net.c ****  * @author        Pascal Stang, Adam Kaliszan
   4:../../freeRtos/Lib/net/net.c ****  * @brief         Network support library. 
   5:../../freeRtos/Lib/net/net.c ****  * @version       0.1
   6:../../freeRtos/Lib/net/net.c ****  * Created        30.08.2004
   7:../../freeRtos/Lib/net/net.c ****  * Revised        25.11.2010
   8:../../freeRtos/Lib/net/net.c ****  * Editor Tabs    2
   9:../../freeRtos/Lib/net/net.c ****  */
  10:../../freeRtos/Lib/net/net.c **** 
  11:../../freeRtos/Lib/net/net.c **** #include "net.h"
  12:../../freeRtos/Lib/net/net.c **** 
  13:../../freeRtos/Lib/net/net.c **** 
  14:../../freeRtos/Lib/net/net.c **** uint16_t htons(uint16_t val)
  15:../../freeRtos/Lib/net/net.c **** {
 421               	.LM0:
 422               	.LFBB1:
 423               	/* prologue: function */
 424               	/* frame size = 0 */
 425               	/* stack size = 0 */
 426               	.L__stack_usage = 0
  16:../../freeRtos/Lib/net/net.c ****   return (val<<8) | (val>>8);
 428               	.LM1:
 429 0000 382F      		mov r19,r24
 430 0002 292F      		mov r18,r25
  17:../../freeRtos/Lib/net/net.c **** }
 432               	.LM2:
 433 0004 C901      		movw r24,r18
 434               	/* epilogue start */
 435 0006 0895      		ret
 437               	.Lscope1:
 439               		.stabd	78,0,0
 442               	.global	htonl
 444               	htonl:
 445               		.stabd	46,0,0
  18:../../freeRtos/Lib/net/net.c **** 
  19:../../freeRtos/Lib/net/net.c **** uint32_t htonl(uint32_t val)
  20:../../freeRtos/Lib/net/net.c **** {
 447               	.LM3:
 448               	.LFBB2:
 449               	/* prologue: function */
 450               	/* frame size = 0 */
 451               	/* stack size = 0 */
 452               	.L__stack_usage = 0
 453               	.LBB36:
 454               	.LBB37:
  16:../../freeRtos/Lib/net/net.c ****   return (val<<8) | (val>>8);
 456               	.LM4:
 457 0008 362F      		mov r19,r22
 458 000a 272F      		mov r18,r23
 459               	.LBE37:
 460               	.LBE36:
  21:../../freeRtos/Lib/net/net.c ****   return (htons(val>>16) | (uint32_t)htons(val&0x0000FFFF)<<16);
 462               	.LM5:
 463 000c 40E0      		ldi r20,lo8(0)
 464 000e 50E0      		ldi r21,hi8(0)
 465 0010 A901      		movw r20,r18
 466 0012 3327      		clr r19
 467 0014 2227      		clr r18
 468               	.LBB38:
 469               	.LBB39:
  16:../../freeRtos/Lib/net/net.c ****   return (val<<8) | (val>>8);
 471               	.LM6:
 472 0016 9827      		eor r25,r24
 473 0018 8927      		eor r24,r25
 474 001a 9827      		eor r25,r24
 475               	.LBE39:
 476               	.LBE38:
 478               	.LM7:
 479 001c A0E0      		ldi r26,lo8(0)
 480 001e B0E0      		ldi r27,hi8(0)
 481 0020 282B      		or r18,r24
 482 0022 392B      		or r19,r25
 483 0024 4A2B      		or r20,r26
 484 0026 5B2B      		or r21,r27
  22:../../freeRtos/Lib/net/net.c **** }
 486               	.LM8:
 487 0028 B901      		movw r22,r18
 488 002a CA01      		movw r24,r20
 489               	/* epilogue start */
 490 002c 0895      		ret
 492               	.Lscope2:
 494               		.stabd	78,0,0
 498               	.global	netChecksum
 500               	netChecksum:
 501               		.stabd	46,0,0
  23:../../freeRtos/Lib/net/net.c **** 
  24:../../freeRtos/Lib/net/net.c **** 
  25:../../freeRtos/Lib/net/net.c **** uint16_t netChecksum(uint8_t *data, uint16_t len)
  26:../../freeRtos/Lib/net/net.c **** {
 503               	.LM9:
 504               	.LFBB3:
 505 002e EF92      		push r14
 506 0030 FF92      		push r15
 507 0032 0F93      		push r16
 508 0034 1F93      		push r17
 509               	/* prologue: function */
 510               	/* frame size = 0 */
 511               	/* stack size = 4 */
 512               	.L__stack_usage = 4
 514               	.LM10:
 515 0036 FB01      		movw r30,r22
 516 0038 DC01      		movw r26,r24
  27:../../freeRtos/Lib/net/net.c ****   register uint32_t sum = 0;
 518               	.LM11:
 519 003a 20E0      		ldi r18,lo8(0)
 520 003c 30E0      		ldi r19,hi8(0)
 521 003e A901      		movw r20,r18
 522               	.L5:
  28:../../freeRtos/Lib/net/net.c **** 
  29:../../freeRtos/Lib/net/net.c ****   for (;;) 
  30:../../freeRtos/Lib/net/net.c ****   {
  31:../../freeRtos/Lib/net/net.c ****     if (len < 2)
 524               	.LM12:
 525 0040 E230      		cpi r30,2
 526 0042 F105      		cpc r31,__zero_reg__
 527 0044 00F0      		brlo .L4
  32:../../freeRtos/Lib/net/net.c ****       break;
  33:../../freeRtos/Lib/net/net.c **** //sum += *((uint16_t *)data)++;
  34:../../freeRtos/Lib/net/net.c ****     sum += *((uint16_t *)data);
 529               	.LM13:
 530 0046 ED90      		ld r14,X+
 531 0048 FD90      		ld r15,X+
 532 004a 00E0      		ldi r16,lo8(0)
 533 004c 10E0      		ldi r17,hi8(0)
 534 004e 2E0D      		add r18,r14
 535 0050 3F1D      		adc r19,r15
 536 0052 401F      		adc r20,r16
 537 0054 511F      		adc r21,r17
  35:../../freeRtos/Lib/net/net.c ****     data+=2;
  36:../../freeRtos/Lib/net/net.c ****     len -= 2;
 539               	.LM14:
 540 0056 3297      		sbiw r30,2
  37:../../freeRtos/Lib/net/net.c ****   }
 542               	.LM15:
 543 0058 00C0      		rjmp .L5
 544               	.L4:
  25:../../freeRtos/Lib/net/net.c **** uint16_t netChecksum(uint8_t *data, uint16_t len)
 546               	.LM16:
 547 005a FB01      		movw r30,r22
 548 005c EE7F      		andi r30,lo8(-2)
 550               	.LM17:
 551 005e E80F      		add r30,r24
 552 0060 F91F      		adc r31,r25
  38:../../freeRtos/Lib/net/net.c ****   if (len)
 554               	.LM18:
 555 0062 60FF      		sbrs r22,0
 556 0064 00C0      		rjmp .L9
  39:../../freeRtos/Lib/net/net.c ****     sum += *(uint8_t *) data;
 558               	.LM19:
 559 0066 8081      		ld r24,Z
 560 0068 280F      		add r18,r24
 561 006a 311D      		adc r19,__zero_reg__
 562 006c 411D      		adc r20,__zero_reg__
 563 006e 511D      		adc r21,__zero_reg__
 564 0070 00C0      		rjmp .L9
 565               	.L8:
  40:../../freeRtos/Lib/net/net.c **** 
  41:../../freeRtos/Lib/net/net.c ****   while ((len = (uint16_t) (sum >> 16)) != 0)
  42:../../freeRtos/Lib/net/net.c ****     sum = (uint16_t) sum + len;
 567               	.LM20:
 568 0072 280F      		add r18,r24
 569 0074 391F      		adc r19,r25
 570 0076 40E0      		ldi r20,lo8(0)
 571 0078 50E0      		ldi r21,hi8(0)
 572               	.L9:
  41:../../freeRtos/Lib/net/net.c ****   while ((len = (uint16_t) (sum >> 16)) != 0)
 574               	.LM21:
 575 007a CA01      		movw r24,r20
 576 007c 0097      		sbiw r24,0
 577 007e 01F4      		brne .L8
  43:../../freeRtos/Lib/net/net.c **** 
  44:../../freeRtos/Lib/net/net.c ****   return (uint16_t) sum ^ 0xFFFF;
 579               	.LM22:
 580 0080 2095      		com r18
 581 0082 3095      		com r19
  45:../../freeRtos/Lib/net/net.c **** }
 583               	.LM23:
 584 0084 C901      		movw r24,r18
 585               	/* epilogue start */
 586 0086 1F91      		pop r17
 587 0088 0F91      		pop r16
 588 008a FF90      		pop r15
 589 008c EF90      		pop r14
 590 008e 0895      		ret
 592               	.Lscope3:
 594               		.stabd	78,0,0
 598               	.global	netPrintEthAddr
 600               	netPrintEthAddr:
 601               		.stabd	46,0,0
  46:../../freeRtos/Lib/net/net.c **** 
  47:../../freeRtos/Lib/net/net.c **** void netPrintEthAddr(FILE *stream, struct netEthAddr* ethaddr)
  48:../../freeRtos/Lib/net/net.c **** {
 603               	.LM24:
 604               	.LFBB4:
 605 0090 CF93      		push r28
 606 0092 DF93      		push r29
 607               	/* prologue: function */
 608               	/* frame size = 0 */
 609               	/* stack size = 2 */
 610               	.L__stack_usage = 2
 611 0094 DB01      		movw r26,r22
  49:../../freeRtos/Lib/net/net.c ****   fprintf_P(stream, PSTR("%02x:%02x:%02x:%02x:%02x:%02x"), ethaddr->addr[0], ethaddr->addr[1], etha
 613               	.LM25:
 614 0096 2DB7      		in r18,__SP_L__
 615 0098 3EB7      		in r19,__SP_H__
 616 009a 2051      		subi r18,lo8(-(-16))
 617 009c 3040      		sbci r19,hi8(-(-16))
 618 009e 2DBF      		out __SP_L__,r18
 619 00a0 3EBF      		out __SP_H__,r19
 620 00a2 EDB7      		in r30,__SP_L__
 621 00a4 FEB7      		in r31,__SP_H__
 622 00a6 3196      		adiw r30,1
 623 00a8 CDB7      		in r28,__SP_L__
 624 00aa DEB7      		in r29,__SP_H__
 625 00ac 8983      		std Y+1,r24
 626 00ae 9A83      		std Y+2,r25
 627 00b0 80E0      		ldi r24,lo8(__c.3529)
 628 00b2 90E0      		ldi r25,hi8(__c.3529)
 629 00b4 8283      		std Z+2,r24
 630 00b6 9383      		std Z+3,r25
 631 00b8 8C91      		ld r24,X
 632 00ba 8483      		std Z+4,r24
 633 00bc 1582      		std Z+5,__zero_reg__
 634 00be 1196      		adiw r26,1
 635 00c0 8C91      		ld r24,X
 636 00c2 1197      		sbiw r26,1
 637 00c4 8683      		std Z+6,r24
 638 00c6 1782      		std Z+7,__zero_reg__
 639 00c8 1296      		adiw r26,2
 640 00ca 8C91      		ld r24,X
 641 00cc 1297      		sbiw r26,2
 642 00ce 8087      		std Z+8,r24
 643 00d0 1186      		std Z+9,__zero_reg__
 644 00d2 1396      		adiw r26,3
 645 00d4 8C91      		ld r24,X
 646 00d6 1397      		sbiw r26,3
 647 00d8 8287      		std Z+10,r24
 648 00da 1386      		std Z+11,__zero_reg__
 649 00dc 1496      		adiw r26,4
 650 00de 8C91      		ld r24,X
 651 00e0 1497      		sbiw r26,4
 652 00e2 8487      		std Z+12,r24
 653 00e4 1586      		std Z+13,__zero_reg__
 654 00e6 1596      		adiw r26,5
 655 00e8 8C91      		ld r24,X
 656 00ea 8687      		std Z+14,r24
 657 00ec 1786      		std Z+15,__zero_reg__
 658 00ee 0E94 0000 		call fprintf_P
 659 00f2 2DB7      		in r18,__SP_L__
 660 00f4 3EB7      		in r19,__SP_H__
 661 00f6 205F      		subi r18,lo8(-(16))
 662 00f8 3F4F      		sbci r19,hi8(-(16))
 663 00fa 2DBF      		out __SP_L__,r18
 664 00fc 3EBF      		out __SP_H__,r19
 665               	/* epilogue start */
  50:../../freeRtos/Lib/net/net.c **** }
 667               	.LM26:
 668 00fe DF91      		pop r29
 669 0100 CF91      		pop r28
 670 0102 0895      		ret
 672               	.Lscope4:
 674               		.stabd	78,0,0
 678               	.global	netPrintIPAddr
 680               	netPrintIPAddr:
 681               		.stabd	46,0,0
  51:../../freeRtos/Lib/net/net.c **** 
  52:../../freeRtos/Lib/net/net.c **** void netPrintIPAddr(FILE *stream, uint32_t ipaddr)
  53:../../freeRtos/Lib/net/net.c **** {
 683               	.LM27:
 684               	.LFBB5:
 685 0104 DF93      		push r29
 686 0106 CF93      		push r28
 687 0108 00D0      		rcall .
 688 010a 0F92      		push __tmp_reg__
 689 010c CDB7      		in r28,__SP_L__
 690 010e DEB7      		in r29,__SP_H__
 691               	/* prologue: function */
 692               	/* frame size = 4 */
 693               	/* stack size = 6 */
 694               	.L__stack_usage = 6
 695 0110 4983      		std Y+1,r20
 696 0112 5A83      		std Y+2,r21
 697 0114 6B83      		std Y+3,r22
 698 0116 7C83      		std Y+4,r23
  54:../../freeRtos/Lib/net/net.c ****   fprintf_P(stream, PSTR("%d.%d.%d.%d"), ((unsigned char*)&ipaddr)[0], ((unsigned char*)&ipaddr)[1]
 700               	.LM28:
 701 0118 AE01      		movw r20,r28
 702 011a 4F5F      		subi r20,lo8(-(1))
 703 011c 5F4F      		sbci r21,hi8(-(1))
 704 011e 2DB7      		in r18,__SP_L__
 705 0120 3EB7      		in r19,__SP_H__
 706 0122 2C50      		subi r18,lo8(-(-12))
 707 0124 3040      		sbci r19,hi8(-(-12))
 708 0126 2DBF      		out __SP_L__,r18
 709 0128 3EBF      		out __SP_H__,r19
 710 012a EDB7      		in r30,__SP_L__
 711 012c FEB7      		in r31,__SP_H__
 712 012e 3196      		adiw r30,1
 713 0130 ADB7      		in r26,__SP_L__
 714 0132 BEB7      		in r27,__SP_H__
 715 0134 1196      		adiw r26,1
 716 0136 8D93      		st X+,r24
 717 0138 9C93      		st X,r25
 718 013a 1297      		sbiw r26,1+1
 719 013c 80E0      		ldi r24,lo8(__c.3535)
 720 013e 90E0      		ldi r25,hi8(__c.3535)
 721 0140 8283      		std Z+2,r24
 722 0142 9383      		std Z+3,r25
 723 0144 8981      		ldd r24,Y+1
 724 0146 8483      		std Z+4,r24
 725 0148 1582      		std Z+5,__zero_reg__
 726 014a DA01      		movw r26,r20
 727 014c 1196      		adiw r26,1
 728 014e 8C91      		ld r24,X
 729 0150 1197      		sbiw r26,1
 730 0152 8683      		std Z+6,r24
 731 0154 1782      		std Z+7,__zero_reg__
 732 0156 1296      		adiw r26,2
 733 0158 8C91      		ld r24,X
 734 015a 1297      		sbiw r26,2
 735 015c 8087      		std Z+8,r24
 736 015e 1186      		std Z+9,__zero_reg__
 737 0160 1396      		adiw r26,3
 738 0162 8C91      		ld r24,X
 739 0164 8287      		std Z+10,r24
 740 0166 1386      		std Z+11,__zero_reg__
 741 0168 0E94 0000 		call fprintf_P
 742 016c 2DB7      		in r18,__SP_L__
 743 016e 3EB7      		in r19,__SP_H__
 744 0170 245F      		subi r18,lo8(-(12))
 745 0172 3F4F      		sbci r19,hi8(-(12))
 746 0174 2DBF      		out __SP_L__,r18
 747 0176 3EBF      		out __SP_H__,r19
 748               	/* epilogue start */
  55:../../freeRtos/Lib/net/net.c **** }
 750               	.LM29:
 751 0178 2496      		adiw r28,4
 752 017a CDBF      		out __SP_L__,r28
 753 017c DEBF      		out __SP_H__,r29
 754 017e CF91      		pop r28
 755 0180 DF91      		pop r29
 756 0182 0895      		ret
 758               	.Lscope5:
 760               		.stabd	78,0,0
 764               	.global	netPrintEthHeader
 766               	netPrintEthHeader:
 767               		.stabd	46,0,0
  56:../../freeRtos/Lib/net/net.c **** 
  57:../../freeRtos/Lib/net/net.c **** void netPrintEthHeader(FILE *stream, struct netEthHeader* eth_hdr)
  58:../../freeRtos/Lib/net/net.c **** {
 769               	.LM30:
 770               	.LFBB6:
 771 0184 0F93      		push r16
 772 0186 1F93      		push r17
 773 0188 CF93      		push r28
 774 018a DF93      		push r29
 775               	/* prologue: function */
 776               	/* frame size = 0 */
 777               	/* stack size = 4 */
 778               	.L__stack_usage = 4
 779 018c EC01      		movw r28,r24
 780 018e 8B01      		movw r16,r22
  59:../../freeRtos/Lib/net/net.c ****   fprintf_P(stream, PSTR("Eth Packet Type: 0x%x"), eth_hdr->type);
 782               	.LM31:
 783 0190 00D0      		rcall .
 784 0192 00D0      		rcall .
 785 0194 EDB7      		in r30,__SP_L__
 786 0196 FEB7      		in r31,__SP_H__
 787 0198 3196      		adiw r30,1
 788 019a ADB7      		in r26,__SP_L__
 789 019c BEB7      		in r27,__SP_H__
 790 019e 1196      		adiw r26,1
 791 01a0 8D93      		st X+,r24
 792 01a2 9C93      		st X,r25
 793 01a4 1297      		sbiw r26,1+1
 794 01a6 80E0      		ldi r24,lo8(__c.3541)
 795 01a8 90E0      		ldi r25,hi8(__c.3541)
 796 01aa 8283      		std Z+2,r24
 797 01ac 9383      		std Z+3,r25
 798 01ae DB01      		movw r26,r22
 799 01b0 1C96      		adiw r26,12
 800 01b2 8D91      		ld r24,X+
 801 01b4 9C91      		ld r25,X
 802 01b6 1D97      		sbiw r26,12+1
 803 01b8 8483      		std Z+4,r24
 804 01ba 9583      		std Z+5,r25
 805 01bc 0E94 0000 		call fprintf_P
  60:../../freeRtos/Lib/net/net.c ****   fprintf_P(stream, PSTR(" SRC:"));
 807               	.LM32:
 808 01c0 0F90      		pop __tmp_reg__
 809 01c2 0F90      		pop __tmp_reg__
 810 01c4 EDB7      		in r30,__SP_L__
 811 01c6 FEB7      		in r31,__SP_H__
 812 01c8 C183      		std Z+1,r28
 813 01ca D283      		std Z+2,r29
 814 01cc 80E0      		ldi r24,lo8(__c.3543)
 815 01ce 90E0      		ldi r25,hi8(__c.3543)
 816 01d0 8383      		std Z+3,r24
 817 01d2 9483      		std Z+4,r25
 818 01d4 0E94 0000 		call fprintf_P
  61:../../freeRtos/Lib/net/net.c ****   netPrintEthAddr(stream, &eth_hdr->src);
 820               	.LM33:
 821 01d8 0F90      		pop __tmp_reg__
 822 01da 0F90      		pop __tmp_reg__
 823 01dc 0F90      		pop __tmp_reg__
 824 01de 0F90      		pop __tmp_reg__
 825 01e0 B801      		movw r22,r16
 826 01e2 6A5F      		subi r22,lo8(-(6))
 827 01e4 7F4F      		sbci r23,hi8(-(6))
 828 01e6 CE01      		movw r24,r28
 829 01e8 0E94 0000 		call netPrintEthAddr
  62:../../freeRtos/Lib/net/net.c ****   fprintf_P(stream, PSTR("->DST:"));
 831               	.LM34:
 832 01ec 00D0      		rcall .
 833 01ee 0F92      		push __tmp_reg__
 834 01f0 ADB7      		in r26,__SP_L__
 835 01f2 BEB7      		in r27,__SP_H__
 836 01f4 1196      		adiw r26,1
 837 01f6 CD93      		st X+,r28
 838 01f8 DC93      		st X,r29
 839 01fa 1297      		sbiw r26,1+1
 840 01fc 80E0      		ldi r24,lo8(__c.3545)
 841 01fe 90E0      		ldi r25,hi8(__c.3545)
 842 0200 1396      		adiw r26,3
 843 0202 8D93      		st X+,r24
 844 0204 9C93      		st X,r25
 845 0206 1497      		sbiw r26,3+1
 846 0208 0E94 0000 		call fprintf_P
  63:../../freeRtos/Lib/net/net.c ****   netPrintEthAddr(stream, &eth_hdr->dest);
 848               	.LM35:
 849 020c 0F90      		pop __tmp_reg__
 850 020e 0F90      		pop __tmp_reg__
 851 0210 0F90      		pop __tmp_reg__
 852 0212 0F90      		pop __tmp_reg__
 853 0214 CE01      		movw r24,r28
 854 0216 B801      		movw r22,r16
 855 0218 0E94 0000 		call netPrintEthAddr
 856               	/* epilogue start */
  64:../../freeRtos/Lib/net/net.c **** }
 858               	.LM36:
 859 021c DF91      		pop r29
 860 021e CF91      		pop r28
 861 0220 1F91      		pop r17
 862 0222 0F91      		pop r16
 863 0224 0895      		ret
 865               	.Lscope6:
 867               		.stabd	78,0,0
 871               	.global	netPrintIpHeader
 873               	netPrintIpHeader:
 874               		.stabd	46,0,0
  65:../../freeRtos/Lib/net/net.c **** 
  66:../../freeRtos/Lib/net/net.c **** void netPrintIpHeader(FILE *stream, struct netIpHeader* ipheader)
  67:../../freeRtos/Lib/net/net.c **** {
 876               	.LM37:
 877               	.LFBB7:
 878 0226 0F93      		push r16
 879 0228 1F93      		push r17
 880 022a CF93      		push r28
 881 022c DF93      		push r29
 882               	/* prologue: function */
 883               	/* frame size = 0 */
 884               	/* stack size = 4 */
 885               	.L__stack_usage = 4
 886 022e EC01      		movw r28,r24
 887 0230 8B01      		movw r16,r22
  68:../../freeRtos/Lib/net/net.c ****   fprintf_P(stream, PSTR("IP Header\r\n"));
 889               	.LM38:
 890 0232 00D0      		rcall .
 891 0234 0F92      		push __tmp_reg__
 892 0236 ADB7      		in r26,__SP_L__
 893 0238 BEB7      		in r27,__SP_H__
 894 023a 1196      		adiw r26,1
 895 023c 8D93      		st X+,r24
 896 023e 9C93      		st X,r25
 897 0240 1297      		sbiw r26,1+1
 898 0242 80E0      		ldi r24,lo8(__c.3551)
 899 0244 90E0      		ldi r25,hi8(__c.3551)
 900 0246 1396      		adiw r26,3
 901 0248 8D93      		st X+,r24
 902 024a 9C93      		st X,r25
 903 024c 1497      		sbiw r26,3+1
 904 024e 0E94 0000 		call fprintf_P
  69:../../freeRtos/Lib/net/net.c ****   fprintf_P(stream, PSTR("Ver     : %d\r\n"), (ipheader->vhl)>>4);
 906               	.LM39:
 907 0252 0F92      		push __tmp_reg__
 908 0254 0F92      		push __tmp_reg__
 909 0256 EDB7      		in r30,__SP_L__
 910 0258 FEB7      		in r31,__SP_H__
 911 025a 3196      		adiw r30,1
 912 025c ADB7      		in r26,__SP_L__
 913 025e BEB7      		in r27,__SP_H__
 914 0260 1196      		adiw r26,1
 915 0262 CD93      		st X+,r28
 916 0264 DC93      		st X,r29
 917 0266 1297      		sbiw r26,1+1
 918 0268 80E0      		ldi r24,lo8(__c.3553)
 919 026a 90E0      		ldi r25,hi8(__c.3553)
 920 026c 8283      		std Z+2,r24
 921 026e 9383      		std Z+3,r25
 922 0270 D801      		movw r26,r16
 923 0272 8C91      		ld r24,X
 924 0274 8295      		swap r24
 925 0276 8F70      		andi r24,lo8(15)
 926 0278 8483      		std Z+4,r24
 927 027a 1582      		std Z+5,__zero_reg__
 928 027c 0E94 0000 		call fprintf_P
  70:../../freeRtos/Lib/net/net.c ****   fprintf_P(stream, PSTR("Length  : %d\r\n"), htons(ipheader->len));
 930               	.LM40:
 931 0280 EDB7      		in r30,__SP_L__
 932 0282 FEB7      		in r31,__SP_H__
 933 0284 3196      		adiw r30,1
 934 0286 ADB7      		in r26,__SP_L__
 935 0288 BEB7      		in r27,__SP_H__
 936 028a 1196      		adiw r26,1
 937 028c CD93      		st X+,r28
 938 028e DC93      		st X,r29
 939 0290 1297      		sbiw r26,1+1
 940 0292 80E0      		ldi r24,lo8(__c.3555)
 941 0294 90E0      		ldi r25,hi8(__c.3555)
 942 0296 8283      		std Z+2,r24
 943 0298 9383      		std Z+3,r25
 944               	.LBB40:
 945               	.LBB41:
  16:../../freeRtos/Lib/net/net.c ****   return (val<<8) | (val>>8);
 947               	.LM41:
 948 029a D801      		movw r26,r16
 949 029c 1296      		adiw r26,2
 950 029e 8D91      		ld r24,X+
 951 02a0 9C91      		ld r25,X
 952 02a2 1397      		sbiw r26,2+1
 953 02a4 9827      		eor r25,r24
 954 02a6 8927      		eor r24,r25
 955 02a8 9827      		eor r25,r24
 956               	.LBE41:
 957               	.LBE40:
 959               	.LM42:
 960 02aa 8483      		std Z+4,r24
 961 02ac 9583      		std Z+5,r25
 962 02ae 0E94 0000 		call fprintf_P
  71:../../freeRtos/Lib/net/net.c ****   if(ipheader->proto == IP_PROTO_ICMP)
 964               	.LM43:
 965 02b2 F801      		movw r30,r16
 966 02b4 2185      		ldd r18,Z+9
 967 02b6 8DB7      		in r24,__SP_L__
 968 02b8 9EB7      		in r25,__SP_H__
 969 02ba 0696      		adiw r24,6
 970 02bc 8DBF      		out __SP_L__,r24
 971 02be 9EBF      		out __SP_H__,r25
 972 02c0 2130      		cpi r18,lo8(1)
 973 02c2 01F4      		brne .L14
  72:../../freeRtos/Lib/net/net.c ****     fprintf_P(stream, PSTR("Protocol: ICMP\r\n"));
 975               	.LM44:
 976 02c4 00D0      		rcall .
 977 02c6 0F92      		push __tmp_reg__
 978 02c8 ADB7      		in r26,__SP_L__
 979 02ca BEB7      		in r27,__SP_H__
 980 02cc 1196      		adiw r26,1
 981 02ce CD93      		st X+,r28
 982 02d0 DC93      		st X,r29
 983 02d2 1297      		sbiw r26,1+1
 984 02d4 80E0      		ldi r24,lo8(__c.3557)
 985 02d6 90E0      		ldi r25,hi8(__c.3557)
 986 02d8 00C0      		rjmp .L19
 987               	.L14:
  73:../../freeRtos/Lib/net/net.c ****   else if(ipheader->proto == IP_PROTO_TCP)
 989               	.LM45:
 990 02da 2630      		cpi r18,lo8(6)
 991 02dc 01F4      		brne .L16
  74:../../freeRtos/Lib/net/net.c ****     fprintf_P(stream, PSTR("Protocol: TCP\r\n"));
 993               	.LM46:
 994 02de 00D0      		rcall .
 995 02e0 0F92      		push __tmp_reg__
 996 02e2 EDB7      		in r30,__SP_L__
 997 02e4 FEB7      		in r31,__SP_H__
 998 02e6 C183      		std Z+1,r28
 999 02e8 D283      		std Z+2,r29
 1000 02ea 80E0      		ldi r24,lo8(__c.3559)
 1001 02ec 90E0      		ldi r25,hi8(__c.3559)
 1002 02ee 8383      		std Z+3,r24
 1003 02f0 9483      		std Z+4,r25
 1004               	.L18:
 1005 02f2 0E94 0000 		call fprintf_P
 1006 02f6 0F90      		pop __tmp_reg__
 1007 02f8 0F90      		pop __tmp_reg__
 1008 02fa 0F90      		pop __tmp_reg__
 1009 02fc 0F90      		pop __tmp_reg__
 1010 02fe 00C0      		rjmp .L15
 1011               	.L16:
  75:../../freeRtos/Lib/net/net.c ****   else if(ipheader->proto == IP_PROTO_UDP)
 1013               	.LM47:
 1014 0300 2131      		cpi r18,lo8(17)
 1015 0302 01F4      		brne .L17
  76:../../freeRtos/Lib/net/net.c ****     fprintf_P(stream, PSTR("Protocol: UDP\r\n"));
 1017               	.LM48:
 1018 0304 00D0      		rcall .
 1019 0306 0F92      		push __tmp_reg__
 1020 0308 ADB7      		in r26,__SP_L__
 1021 030a BEB7      		in r27,__SP_H__
 1022 030c 1196      		adiw r26,1
 1023 030e CD93      		st X+,r28
 1024 0310 DC93      		st X,r29
 1025 0312 1297      		sbiw r26,1+1
 1026 0314 80E0      		ldi r24,lo8(__c.3561)
 1027 0316 90E0      		ldi r25,hi8(__c.3561)
 1028               	.L19:
 1029 0318 1396      		adiw r26,3
 1030 031a 8D93      		st X+,r24
 1031 031c 9C93      		st X,r25
 1032 031e 1497      		sbiw r26,3+1
 1033 0320 00C0      		rjmp .L18
 1034               	.L17:
  77:../../freeRtos/Lib/net/net.c ****   else
  78:../../freeRtos/Lib/net/net.c ****     fprintf_P(stream, PSTR("Protocol: %d\r\n"), ipheader->proto);
 1036               	.LM49:
 1037 0322 00D0      		rcall .
 1038 0324 00D0      		rcall .
 1039 0326 EDB7      		in r30,__SP_L__
 1040 0328 FEB7      		in r31,__SP_H__
 1041 032a 3196      		adiw r30,1
 1042 032c ADB7      		in r26,__SP_L__
 1043 032e BEB7      		in r27,__SP_H__
 1044 0330 1196      		adiw r26,1
 1045 0332 CD93      		st X+,r28
 1046 0334 DC93      		st X,r29
 1047 0336 1297      		sbiw r26,1+1
 1048 0338 80E0      		ldi r24,lo8(__c.3563)
 1049 033a 90E0      		ldi r25,hi8(__c.3563)
 1050 033c 8283      		std Z+2,r24
 1051 033e 9383      		std Z+3,r25
 1052 0340 2483      		std Z+4,r18
 1053 0342 1582      		std Z+5,__zero_reg__
 1054 0344 0E94 0000 		call fprintf_P
 1055 0348 EDB7      		in r30,__SP_L__
 1056 034a FEB7      		in r31,__SP_H__
 1057 034c 3696      		adiw r30,6
 1058 034e EDBF      		out __SP_L__,r30
 1059 0350 FEBF      		out __SP_H__,r31
 1060               	.L15:
  79:../../freeRtos/Lib/net/net.c **** 
  80:../../freeRtos/Lib/net/net.c ****   fprintf_P(stream, PSTR("SourceIP: ")); netPrintIPAddr(stream, htonl(ipheader->srcipaddr));   fpri
 1062               	.LM50:
 1063 0352 00D0      		rcall .
 1064 0354 0F92      		push __tmp_reg__
 1065 0356 ADB7      		in r26,__SP_L__
 1066 0358 BEB7      		in r27,__SP_H__
 1067 035a 1196      		adiw r26,1
 1068 035c CD93      		st X+,r28
 1069 035e DC93      		st X,r29
 1070 0360 1297      		sbiw r26,1+1
 1071 0362 80E0      		ldi r24,lo8(__c.3565)
 1072 0364 90E0      		ldi r25,hi8(__c.3565)
 1073 0366 1396      		adiw r26,3
 1074 0368 8D93      		st X+,r24
 1075 036a 9C93      		st X,r25
 1076 036c 1497      		sbiw r26,3+1
 1077 036e 0E94 0000 		call fprintf_P
 1078 0372 0F90      		pop __tmp_reg__
 1079 0374 0F90      		pop __tmp_reg__
 1080 0376 0F90      		pop __tmp_reg__
 1081 0378 0F90      		pop __tmp_reg__
 1082 037a F801      		movw r30,r16
 1083 037c 6485      		ldd r22,Z+12
 1084 037e 7585      		ldd r23,Z+13
 1085 0380 8685      		ldd r24,Z+14
 1086 0382 9785      		ldd r25,Z+15
 1087 0384 0E94 0000 		call htonl
 1088 0388 AB01      		movw r20,r22
 1089 038a BC01      		movw r22,r24
 1090 038c CE01      		movw r24,r28
 1091 038e 0E94 0000 		call netPrintIPAddr
 1092 0392 00D0      		rcall .
 1093 0394 0F92      		push __tmp_reg__
 1094 0396 ADB7      		in r26,__SP_L__
 1095 0398 BEB7      		in r27,__SP_H__
 1096 039a 1196      		adiw r26,1
 1097 039c CD93      		st X+,r28
 1098 039e DC93      		st X,r29
 1099 03a0 1297      		sbiw r26,1+1
 1100 03a2 80E0      		ldi r24,lo8(__c.3567)
 1101 03a4 90E0      		ldi r25,hi8(__c.3567)
 1102 03a6 1396      		adiw r26,3
 1103 03a8 8D93      		st X+,r24
 1104 03aa 9C93      		st X,r25
 1105 03ac 1497      		sbiw r26,3+1
 1106 03ae 0E94 0000 		call fprintf_P
  81:../../freeRtos/Lib/net/net.c ****   fprintf_P(stream, PSTR("Dest  IP: ")); netPrintIPAddr(stream, htonl(ipheader->destipaddr));  fpri
 1108               	.LM51:
 1109 03b2 EDB7      		in r30,__SP_L__
 1110 03b4 FEB7      		in r31,__SP_H__
 1111 03b6 C183      		std Z+1,r28
 1112 03b8 D283      		std Z+2,r29
 1113 03ba 80E0      		ldi r24,lo8(__c.3569)
 1114 03bc 90E0      		ldi r25,hi8(__c.3569)
 1115 03be 8383      		std Z+3,r24
 1116 03c0 9483      		std Z+4,r25
 1117 03c2 0E94 0000 		call fprintf_P
 1118 03c6 0F90      		pop __tmp_reg__
 1119 03c8 0F90      		pop __tmp_reg__
 1120 03ca 0F90      		pop __tmp_reg__
 1121 03cc 0F90      		pop __tmp_reg__
 1122 03ce D801      		movw r26,r16
 1123 03d0 5096      		adiw r26,16
 1124 03d2 6D91      		ld r22,X+
 1125 03d4 7D91      		ld r23,X+
 1126 03d6 8D91      		ld r24,X+
 1127 03d8 9C91      		ld r25,X
 1128 03da 5397      		sbiw r26,16+3
 1129 03dc 0E94 0000 		call htonl
 1130 03e0 AB01      		movw r20,r22
 1131 03e2 BC01      		movw r22,r24
 1132 03e4 CE01      		movw r24,r28
 1133 03e6 0E94 0000 		call netPrintIPAddr
 1134 03ea 00D0      		rcall .
 1135 03ec 0F92      		push __tmp_reg__
 1136 03ee EDB7      		in r30,__SP_L__
 1137 03f0 FEB7      		in r31,__SP_H__
 1138 03f2 C183      		std Z+1,r28
 1139 03f4 D283      		std Z+2,r29
 1140 03f6 80E0      		ldi r24,lo8(__c.3571)
 1141 03f8 90E0      		ldi r25,hi8(__c.3571)
 1142 03fa 8383      		std Z+3,r24
 1143 03fc 9483      		std Z+4,r25
 1144 03fe 0E94 0000 		call fprintf_P
 1145 0402 0F90      		pop __tmp_reg__
 1146 0404 0F90      		pop __tmp_reg__
 1147 0406 0F90      		pop __tmp_reg__
 1148 0408 0F90      		pop __tmp_reg__
 1149               	/* epilogue start */
  82:../../freeRtos/Lib/net/net.c **** }
 1151               	.LM52:
 1152 040a DF91      		pop r29
 1153 040c CF91      		pop r28
 1154 040e 1F91      		pop r17
 1155 0410 0F91      		pop r16
 1156 0412 0895      		ret
 1158               	.Lscope7:
 1160               		.stabd	78,0,0
 1164               	.global	netPrintTcpHeader
 1166               	netPrintTcpHeader:
 1167               		.stabd	46,0,0
  83:../../freeRtos/Lib/net/net.c **** 
  84:../../freeRtos/Lib/net/net.c **** void netPrintTcpHeader(FILE *stream, struct netTcpHeader* tcpheader)
  85:../../freeRtos/Lib/net/net.c **** {
 1169               	.LM53:
 1170               	.LFBB8:
 1171 0414 0F93      		push r16
 1172 0416 1F93      		push r17
 1173 0418 CF93      		push r28
 1174 041a DF93      		push r29
 1175               	/* prologue: function */
 1176               	/* frame size = 0 */
 1177               	/* stack size = 4 */
 1178               	.L__stack_usage = 4
 1179 041c EC01      		movw r28,r24
 1180 041e 8B01      		movw r16,r22
  86:../../freeRtos/Lib/net/net.c ****   fprintf_P(stream, PSTR("TCP Header\r\n"));
 1182               	.LM54:
 1183 0420 00D0      		rcall .
 1184 0422 0F92      		push __tmp_reg__
 1185 0424 ADB7      		in r26,__SP_L__
 1186 0426 BEB7      		in r27,__SP_H__
 1187 0428 1196      		adiw r26,1
 1188 042a 8D93      		st X+,r24
 1189 042c 9C93      		st X,r25
 1190 042e 1297      		sbiw r26,1+1
 1191 0430 80E0      		ldi r24,lo8(__c.3577)
 1192 0432 90E0      		ldi r25,hi8(__c.3577)
 1193 0434 1396      		adiw r26,3
 1194 0436 8D93      		st X+,r24
 1195 0438 9C93      		st X,r25
 1196 043a 1497      		sbiw r26,3+1
 1197 043c 0E94 0000 		call fprintf_P
  87:../../freeRtos/Lib/net/net.c ****   fprintf_P(stream, PSTR("Src Port: %d\r\n"), htons(tcpheader->srcport));
 1199               	.LM55:
 1200 0440 0F92      		push __tmp_reg__
 1201 0442 0F92      		push __tmp_reg__
 1202 0444 EDB7      		in r30,__SP_L__
 1203 0446 FEB7      		in r31,__SP_H__
 1204 0448 3196      		adiw r30,1
 1205 044a ADB7      		in r26,__SP_L__
 1206 044c BEB7      		in r27,__SP_H__
 1207 044e 1196      		adiw r26,1
 1208 0450 CD93      		st X+,r28
 1209 0452 DC93      		st X,r29
 1210 0454 1297      		sbiw r26,1+1
 1211 0456 80E0      		ldi r24,lo8(__c.3579)
 1212 0458 90E0      		ldi r25,hi8(__c.3579)
 1213 045a 8283      		std Z+2,r24
 1214 045c 9383      		std Z+3,r25
 1215               	.LBB42:
 1216               	.LBB43:
  16:../../freeRtos/Lib/net/net.c ****   return (val<<8) | (val>>8);
 1218               	.LM56:
 1219 045e D801      		movw r26,r16
 1220 0460 8D91      		ld r24,X+
 1221 0462 9C91      		ld r25,X
 1222 0464 9827      		eor r25,r24
 1223 0466 8927      		eor r24,r25
 1224 0468 9827      		eor r25,r24
 1225               	.LBE43:
 1226               	.LBE42:
 1228               	.LM57:
 1229 046a 8483      		std Z+4,r24
 1230 046c 9583      		std Z+5,r25
 1231 046e 0E94 0000 		call fprintf_P
  88:../../freeRtos/Lib/net/net.c ****   fprintf_P(stream, PSTR("Dst Port: %d\r\n"), htons(tcpheader->destport));
 1233               	.LM58:
 1234 0472 EDB7      		in r30,__SP_L__
 1235 0474 FEB7      		in r31,__SP_H__
 1236 0476 3196      		adiw r30,1
 1237 0478 ADB7      		in r26,__SP_L__
 1238 047a BEB7      		in r27,__SP_H__
 1239 047c 1196      		adiw r26,1
 1240 047e CD93      		st X+,r28
 1241 0480 DC93      		st X,r29
 1242 0482 1297      		sbiw r26,1+1
 1243 0484 80E0      		ldi r24,lo8(__c.3581)
 1244 0486 90E0      		ldi r25,hi8(__c.3581)
 1245 0488 8283      		std Z+2,r24
 1246 048a 9383      		std Z+3,r25
 1247               	.LBB44:
 1248               	.LBB45:
  16:../../freeRtos/Lib/net/net.c ****   return (val<<8) | (val>>8);
 1250               	.LM59:
 1251 048c D801      		movw r26,r16
 1252 048e 1296      		adiw r26,2
 1253 0490 8D91      		ld r24,X+
 1254 0492 9C91      		ld r25,X
 1255 0494 1397      		sbiw r26,2+1
 1256 0496 9827      		eor r25,r24
 1257 0498 8927      		eor r24,r25
 1258 049a 9827      		eor r25,r24
 1259               	.LBE45:
 1260               	.LBE44:
 1262               	.LM60:
 1263 049c 8483      		std Z+4,r24
 1264 049e 9583      		std Z+5,r25
 1265 04a0 0E94 0000 		call fprintf_P
  89:../../freeRtos/Lib/net/net.c ****   fprintf_P(stream, PSTR("Seq Num : 0x%x"), htonl(tcpheader->seqno));
 1267               	.LM61:
 1268 04a4 EDB7      		in r30,__SP_L__
 1269 04a6 FEB7      		in r31,__SP_H__
 1270 04a8 3696      		adiw r30,6
 1271 04aa EDBF      		out __SP_L__,r30
 1272 04ac FEBF      		out __SP_H__,r31
 1273 04ae D801      		movw r26,r16
 1274 04b0 1496      		adiw r26,4
 1275 04b2 6D91      		ld r22,X+
 1276 04b4 7D91      		ld r23,X+
 1277 04b6 8D91      		ld r24,X+
 1278 04b8 9C91      		ld r25,X
 1279 04ba 1797      		sbiw r26,4+3
 1280 04bc 0E94 0000 		call htonl
 1281 04c0 EDB7      		in r30,__SP_L__
 1282 04c2 FEB7      		in r31,__SP_H__
 1283 04c4 3897      		sbiw r30,8
 1284 04c6 EDBF      		out __SP_L__,r30
 1285 04c8 FEBF      		out __SP_H__,r31
 1286 04ca 3196      		adiw r30,1
 1287 04cc ADB7      		in r26,__SP_L__
 1288 04ce BEB7      		in r27,__SP_H__
 1289 04d0 1196      		adiw r26,1
 1290 04d2 CD93      		st X+,r28
 1291 04d4 DC93      		st X,r29
 1292 04d6 1297      		sbiw r26,1+1
 1293 04d8 20E0      		ldi r18,lo8(__c.3583)
 1294 04da 30E0      		ldi r19,hi8(__c.3583)
 1295 04dc 2283      		std Z+2,r18
 1296 04de 3383      		std Z+3,r19
 1297 04e0 6483      		std Z+4,r22
 1298 04e2 7583      		std Z+5,r23
 1299 04e4 8683      		std Z+6,r24
 1300 04e6 9783      		std Z+7,r25
 1301 04e8 0E94 0000 		call fprintf_P
  90:../../freeRtos/Lib/net/net.c ****   fprintf_P(stream, PSTR("Ack Num : 0x%x\r\n"), htonl(tcpheader->ackno));
 1303               	.LM62:
 1304 04ec EDB7      		in r30,__SP_L__
 1305 04ee FEB7      		in r31,__SP_H__
 1306 04f0 3896      		adiw r30,8
 1307 04f2 EDBF      		out __SP_L__,r30
 1308 04f4 FEBF      		out __SP_H__,r31
 1309 04f6 D801      		movw r26,r16
 1310 04f8 1896      		adiw r26,8
 1311 04fa 6D91      		ld r22,X+
 1312 04fc 7D91      		ld r23,X+
 1313 04fe 8D91      		ld r24,X+
 1314 0500 9C91      		ld r25,X
 1315 0502 1B97      		sbiw r26,8+3
 1316 0504 0E94 0000 		call htonl
 1317 0508 EDB7      		in r30,__SP_L__
 1318 050a FEB7      		in r31,__SP_H__
 1319 050c 3897      		sbiw r30,8
 1320 050e EDBF      		out __SP_L__,r30
 1321 0510 FEBF      		out __SP_H__,r31
 1322 0512 3196      		adiw r30,1
 1323 0514 ADB7      		in r26,__SP_L__
 1324 0516 BEB7      		in r27,__SP_H__
 1325 0518 1196      		adiw r26,1
 1326 051a CD93      		st X+,r28
 1327 051c DC93      		st X,r29
 1328 051e 1297      		sbiw r26,1+1
 1329 0520 20E0      		ldi r18,lo8(__c.3585)
 1330 0522 30E0      		ldi r19,hi8(__c.3585)
 1331 0524 2283      		std Z+2,r18
 1332 0526 3383      		std Z+3,r19
 1333 0528 6483      		std Z+4,r22
 1334 052a 7583      		std Z+5,r23
 1335 052c 8683      		std Z+6,r24
 1336 052e 9783      		std Z+7,r25
 1337 0530 0E94 0000 		call fprintf_P
  91:../../freeRtos/Lib/net/net.c ****   fprintf_P(stream, PSTR("Flags   : "));
 1339               	.LM63:
 1340 0534 0F90      		pop __tmp_reg__
 1341 0536 0F90      		pop __tmp_reg__
 1342 0538 0F90      		pop __tmp_reg__
 1343 053a 0F90      		pop __tmp_reg__
 1344 053c EDB7      		in r30,__SP_L__
 1345 053e FEB7      		in r31,__SP_H__
 1346 0540 C183      		std Z+1,r28
 1347 0542 D283      		std Z+2,r29
 1348 0544 80E0      		ldi r24,lo8(__c.3587)
 1349 0546 90E0      		ldi r25,hi8(__c.3587)
 1350 0548 8383      		std Z+3,r24
 1351 054a 9483      		std Z+4,r25
 1352 054c 0E94 0000 		call fprintf_P
  92:../../freeRtos/Lib/net/net.c ****   if(tcpheader->flags & TCP_FLAGS_FIN)
 1354               	.LM64:
 1355 0550 D801      		movw r26,r16
 1356 0552 1D96      		adiw r26,13
 1357 0554 8C91      		ld r24,X
 1358 0556 1D97      		sbiw r26,13
 1359 0558 0F90      		pop __tmp_reg__
 1360 055a 0F90      		pop __tmp_reg__
 1361 055c 0F90      		pop __tmp_reg__
 1362 055e 0F90      		pop __tmp_reg__
 1363 0560 80FF      		sbrs r24,0
 1364 0562 00C0      		rjmp .L21
  93:../../freeRtos/Lib/net/net.c ****     fprintf_P(stream, PSTR("FIN "));
 1366               	.LM65:
 1367 0564 00D0      		rcall .
 1368 0566 0F92      		push __tmp_reg__
 1369 0568 EDB7      		in r30,__SP_L__
 1370 056a FEB7      		in r31,__SP_H__
 1371 056c C183      		std Z+1,r28
 1372 056e D283      		std Z+2,r29
 1373 0570 80E0      		ldi r24,lo8(__c.3589)
 1374 0572 90E0      		ldi r25,hi8(__c.3589)
 1375 0574 8383      		std Z+3,r24
 1376 0576 9483      		std Z+4,r25
 1377 0578 0E94 0000 		call fprintf_P
 1378 057c 0F90      		pop __tmp_reg__
 1379 057e 0F90      		pop __tmp_reg__
 1380 0580 0F90      		pop __tmp_reg__
 1381 0582 0F90      		pop __tmp_reg__
 1382               	.L21:
  94:../../freeRtos/Lib/net/net.c ****   if(tcpheader->flags & TCP_FLAGS_SYN)
 1384               	.LM66:
 1385 0584 D801      		movw r26,r16
 1386 0586 1D96      		adiw r26,13
 1387 0588 8C91      		ld r24,X
 1388 058a 1D97      		sbiw r26,13
 1389 058c 81FF      		sbrs r24,1
 1390 058e 00C0      		rjmp .L22
  95:../../freeRtos/Lib/net/net.c ****     fprintf_P(stream, PSTR("SYN "));
 1392               	.LM67:
 1393 0590 00D0      		rcall .
 1394 0592 0F92      		push __tmp_reg__
 1395 0594 EDB7      		in r30,__SP_L__
 1396 0596 FEB7      		in r31,__SP_H__
 1397 0598 C183      		std Z+1,r28
 1398 059a D283      		std Z+2,r29
 1399 059c 80E0      		ldi r24,lo8(__c.3591)
 1400 059e 90E0      		ldi r25,hi8(__c.3591)
 1401 05a0 8383      		std Z+3,r24
 1402 05a2 9483      		std Z+4,r25
 1403 05a4 0E94 0000 		call fprintf_P
 1404 05a8 0F90      		pop __tmp_reg__
 1405 05aa 0F90      		pop __tmp_reg__
 1406 05ac 0F90      		pop __tmp_reg__
 1407 05ae 0F90      		pop __tmp_reg__
 1408               	.L22:
  96:../../freeRtos/Lib/net/net.c ****   if(tcpheader->flags & TCP_FLAGS_RST)
 1410               	.LM68:
 1411 05b0 D801      		movw r26,r16
 1412 05b2 1D96      		adiw r26,13
 1413 05b4 8C91      		ld r24,X
 1414 05b6 1D97      		sbiw r26,13
 1415 05b8 82FF      		sbrs r24,2
 1416 05ba 00C0      		rjmp .L23
  97:../../freeRtos/Lib/net/net.c ****     fprintf_P(stream, PSTR("RST "));
 1418               	.LM69:
 1419 05bc 00D0      		rcall .
 1420 05be 0F92      		push __tmp_reg__
 1421 05c0 EDB7      		in r30,__SP_L__
 1422 05c2 FEB7      		in r31,__SP_H__
 1423 05c4 C183      		std Z+1,r28
 1424 05c6 D283      		std Z+2,r29
 1425 05c8 80E0      		ldi r24,lo8(__c.3593)
 1426 05ca 90E0      		ldi r25,hi8(__c.3593)
 1427 05cc 8383      		std Z+3,r24
 1428 05ce 9483      		std Z+4,r25
 1429 05d0 0E94 0000 		call fprintf_P
 1430 05d4 0F90      		pop __tmp_reg__
 1431 05d6 0F90      		pop __tmp_reg__
 1432 05d8 0F90      		pop __tmp_reg__
 1433 05da 0F90      		pop __tmp_reg__
 1434               	.L23:
  98:../../freeRtos/Lib/net/net.c ****   if(tcpheader->flags & TCP_FLAGS_PSH)
 1436               	.LM70:
 1437 05dc D801      		movw r26,r16
 1438 05de 1D96      		adiw r26,13
 1439 05e0 8C91      		ld r24,X
 1440 05e2 1D97      		sbiw r26,13
 1441 05e4 83FF      		sbrs r24,3
 1442 05e6 00C0      		rjmp .L24
  99:../../freeRtos/Lib/net/net.c ****     fprintf_P(stream, PSTR("PSH "));
 1444               	.LM71:
 1445 05e8 00D0      		rcall .
 1446 05ea 0F92      		push __tmp_reg__
 1447 05ec EDB7      		in r30,__SP_L__
 1448 05ee FEB7      		in r31,__SP_H__
 1449 05f0 C183      		std Z+1,r28
 1450 05f2 D283      		std Z+2,r29
 1451 05f4 80E0      		ldi r24,lo8(__c.3595)
 1452 05f6 90E0      		ldi r25,hi8(__c.3595)
 1453 05f8 8383      		std Z+3,r24
 1454 05fa 9483      		std Z+4,r25
 1455 05fc 0E94 0000 		call fprintf_P
 1456 0600 0F90      		pop __tmp_reg__
 1457 0602 0F90      		pop __tmp_reg__
 1458 0604 0F90      		pop __tmp_reg__
 1459 0606 0F90      		pop __tmp_reg__
 1460               	.L24:
 100:../../freeRtos/Lib/net/net.c ****   if(tcpheader->flags & TCP_FLAGS_ACK)
 1462               	.LM72:
 1463 0608 D801      		movw r26,r16
 1464 060a 1D96      		adiw r26,13
 1465 060c 8C91      		ld r24,X
 1466 060e 1D97      		sbiw r26,13
 1467 0610 84FF      		sbrs r24,4
 1468 0612 00C0      		rjmp .L25
 101:../../freeRtos/Lib/net/net.c ****     fprintf_P(stream, PSTR("ACK "));
 1470               	.LM73:
 1471 0614 00D0      		rcall .
 1472 0616 0F92      		push __tmp_reg__
 1473 0618 EDB7      		in r30,__SP_L__
 1474 061a FEB7      		in r31,__SP_H__
 1475 061c C183      		std Z+1,r28
 1476 061e D283      		std Z+2,r29
 1477 0620 80E0      		ldi r24,lo8(__c.3597)
 1478 0622 90E0      		ldi r25,hi8(__c.3597)
 1479 0624 8383      		std Z+3,r24
 1480 0626 9483      		std Z+4,r25
 1481 0628 0E94 0000 		call fprintf_P
 1482 062c 0F90      		pop __tmp_reg__
 1483 062e 0F90      		pop __tmp_reg__
 1484 0630 0F90      		pop __tmp_reg__
 1485 0632 0F90      		pop __tmp_reg__
 1486               	.L25:
 102:../../freeRtos/Lib/net/net.c ****   if(tcpheader->flags & TCP_FLAGS_URG)
 1488               	.LM74:
 1489 0634 D801      		movw r26,r16
 1490 0636 1D96      		adiw r26,13
 1491 0638 8C91      		ld r24,X
 1492 063a 1D97      		sbiw r26,13
 1493 063c 85FF      		sbrs r24,5
 1494 063e 00C0      		rjmp .L26
 103:../../freeRtos/Lib/net/net.c ****     fprintf_P(stream, PSTR("URG "));
 1496               	.LM75:
 1497 0640 00D0      		rcall .
 1498 0642 0F92      		push __tmp_reg__
 1499 0644 EDB7      		in r30,__SP_L__
 1500 0646 FEB7      		in r31,__SP_H__
 1501 0648 C183      		std Z+1,r28
 1502 064a D283      		std Z+2,r29
 1503 064c 80E0      		ldi r24,lo8(__c.3599)
 1504 064e 90E0      		ldi r25,hi8(__c.3599)
 1505 0650 8383      		std Z+3,r24
 1506 0652 9483      		std Z+4,r25
 1507 0654 0E94 0000 		call fprintf_P
 1508 0658 0F90      		pop __tmp_reg__
 1509 065a 0F90      		pop __tmp_reg__
 1510 065c 0F90      		pop __tmp_reg__
 1511 065e 0F90      		pop __tmp_reg__
 1512               	.L26:
 104:../../freeRtos/Lib/net/net.c ****   fprintf_P(stream, PSTR("\r\n"));
 1514               	.LM76:
 1515 0660 00D0      		rcall .
 1516 0662 0F92      		push __tmp_reg__
 1517 0664 ADB7      		in r26,__SP_L__
 1518 0666 BEB7      		in r27,__SP_H__
 1519 0668 1196      		adiw r26,1
 1520 066a CD93      		st X+,r28
 1521 066c DC93      		st X,r29
 1522 066e 1297      		sbiw r26,1+1
 1523 0670 80E0      		ldi r24,lo8(__c.3601)
 1524 0672 90E0      		ldi r25,hi8(__c.3601)
 1525 0674 1396      		adiw r26,3
 1526 0676 8D93      		st X+,r24
 1527 0678 9C93      		st X,r25
 1528 067a 1497      		sbiw r26,3+1
 1529 067c 0E94 0000 		call fprintf_P
 1530 0680 0F90      		pop __tmp_reg__
 1531 0682 0F90      		pop __tmp_reg__
 1532 0684 0F90      		pop __tmp_reg__
 1533 0686 0F90      		pop __tmp_reg__
 1534               	/* epilogue start */
 105:../../freeRtos/Lib/net/net.c **** }
 1536               	.LM77:
 1537 0688 DF91      		pop r29
 1538 068a CF91      		pop r28
 1539 068c 1F91      		pop r17
 1540 068e 0F91      		pop r16
 1541 0690 0895      		ret
 1543               	.Lscope8:
 1545               		.stabd	78,0,0
 1546               		.comm wwwport,1,1
 1547               		.section	.progmem.data,"a",@progbits
 1550               	__c.3601:
 1551 0000 0D0A 00   		.string	"\r\n"
 1554               	__c.3599:
 1555 0003 5552 4720 		.string	"URG "
 1555      00
 1558               	__c.3597:
 1559 0008 4143 4B20 		.string	"ACK "
 1559      00
 1562               	__c.3595:
 1563 000d 5053 4820 		.string	"PSH "
 1563      00
 1566               	__c.3593:
 1567 0012 5253 5420 		.string	"RST "
 1567      00
 1570               	__c.3591:
 1571 0017 5359 4E20 		.string	"SYN "
 1571      00
 1574               	__c.3589:
 1575 001c 4649 4E20 		.string	"FIN "
 1575      00
 1578               	__c.3587:
 1579 0021 466C 6167 		.string	"Flags   : "
 1579      7320 2020 
 1579      3A20 00
 1582               	__c.3585:
 1583 002c 4163 6B20 		.string	"Ack Num : 0x%x\r\n"
 1583      4E75 6D20 
 1583      3A20 3078 
 1583      2578 0D0A 
 1583      00
 1586               	__c.3583:
 1587 003d 5365 7120 		.string	"Seq Num : 0x%x"
 1587      4E75 6D20 
 1587      3A20 3078 
 1587      2578 00
 1590               	__c.3581:
 1591 004c 4473 7420 		.string	"Dst Port: %d\r\n"
 1591      506F 7274 
 1591      3A20 2564 
 1591      0D0A 00
 1594               	__c.3579:
 1595 005b 5372 6320 		.string	"Src Port: %d\r\n"
 1595      506F 7274 
 1595      3A20 2564 
 1595      0D0A 00
 1598               	__c.3577:
 1599 006a 5443 5020 		.string	"TCP Header\r\n"
 1599      4865 6164 
 1599      6572 0D0A 
 1599      00
 1602               	__c.3571:
 1603 0077 0D0A 00   		.string	"\r\n"
 1606               	__c.3569:
 1607 007a 4465 7374 		.string	"Dest  IP: "
 1607      2020 4950 
 1607      3A20 00
 1610               	__c.3567:
 1611 0085 0D0A 00   		.string	"\r\n"
 1614               	__c.3565:
 1615 0088 536F 7572 		.string	"SourceIP: "
 1615      6365 4950 
 1615      3A20 00
 1618               	__c.3563:
 1619 0093 5072 6F74 		.string	"Protocol: %d\r\n"
 1619      6F63 6F6C 
 1619      3A20 2564 
 1619      0D0A 00
 1622               	__c.3561:
 1623 00a2 5072 6F74 		.string	"Protocol: UDP\r\n"
 1623      6F63 6F6C 
 1623      3A20 5544 
 1623      500D 0A00 
 1626               	__c.3559:
 1627 00b2 5072 6F74 		.string	"Protocol: TCP\r\n"
 1627      6F63 6F6C 
 1627      3A20 5443 
 1627      500D 0A00 
 1630               	__c.3557:
 1631 00c2 5072 6F74 		.string	"Protocol: ICMP\r\n"
 1631      6F63 6F6C 
 1631      3A20 4943 
 1631      4D50 0D0A 
 1631      00
 1634               	__c.3555:
 1635 00d3 4C65 6E67 		.string	"Length  : %d\r\n"
 1635      7468 2020 
 1635      3A20 2564 
 1635      0D0A 00
 1638               	__c.3553:
 1639 00e2 5665 7220 		.string	"Ver     : %d\r\n"
 1639      2020 2020 
 1639      3A20 2564 
 1639      0D0A 00
 1642               	__c.3551:
 1643 00f1 4950 2048 		.string	"IP Header\r\n"
 1643      6561 6465 
 1643      720D 0A00 
 1646               	__c.3545:
 1647 00fd 2D3E 4453 		.string	"->DST:"
 1647      543A 00
 1650               	__c.3543:
 1651 0104 2053 5243 		.string	" SRC:"
 1651      3A00 
 1654               	__c.3541:
 1655 010a 4574 6820 		.string	"Eth Packet Type: 0x%x"
 1655      5061 636B 
 1655      6574 2054 
 1655      7970 653A 
 1655      2030 7825 
 1658               	__c.3535:
 1659 0120 2564 2E25 		.string	"%d.%d.%d.%d"
 1659      642E 2564 
 1659      2E25 6400 
 1662               	__c.3529:
 1663 012c 2530 3278 		.string	"%02x:%02x:%02x:%02x:%02x:%02x"
 1663      3A25 3032 
 1663      783A 2530 
 1663      3278 3A25 
 1663      3032 783A 
 1665               		.text
 1667               	.Letext0:
 1668               	.global __do_clear_bss
DEFINED SYMBOLS
                            *ABS*:00000000 net.c
     /tmp/ccy7KEuK.s:2      *ABS*:0000003f __SREG__
     /tmp/ccy7KEuK.s:3      *ABS*:0000003e __SP_H__
     /tmp/ccy7KEuK.s:4      *ABS*:0000003d __SP_L__
     /tmp/ccy7KEuK.s:5      *ABS*:00000034 __CCP__
     /tmp/ccy7KEuK.s:6      *ABS*:00000000 __tmp_reg__
     /tmp/ccy7KEuK.s:7      *ABS*:00000001 __zero_reg__
     /tmp/ccy7KEuK.s:418    .text:00000000 htons
     /tmp/ccy7KEuK.s:444    .text:00000008 htonl
     /tmp/ccy7KEuK.s:500    .text:0000002e netChecksum
     /tmp/ccy7KEuK.s:600    .text:00000090 netPrintEthAddr
     /tmp/ccy7KEuK.s:1662   .progmem.data:0000012c __c.3529
     /tmp/ccy7KEuK.s:680    .text:00000104 netPrintIPAddr
     /tmp/ccy7KEuK.s:1658   .progmem.data:00000120 __c.3535
     /tmp/ccy7KEuK.s:766    .text:00000184 netPrintEthHeader
     /tmp/ccy7KEuK.s:1654   .progmem.data:0000010a __c.3541
     /tmp/ccy7KEuK.s:1650   .progmem.data:00000104 __c.3543
     /tmp/ccy7KEuK.s:1646   .progmem.data:000000fd __c.3545
     /tmp/ccy7KEuK.s:873    .text:00000226 netPrintIpHeader
     /tmp/ccy7KEuK.s:1642   .progmem.data:000000f1 __c.3551
     /tmp/ccy7KEuK.s:1638   .progmem.data:000000e2 __c.3553
     /tmp/ccy7KEuK.s:1634   .progmem.data:000000d3 __c.3555
     /tmp/ccy7KEuK.s:1630   .progmem.data:000000c2 __c.3557
     /tmp/ccy7KEuK.s:1626   .progmem.data:000000b2 __c.3559
     /tmp/ccy7KEuK.s:1622   .progmem.data:000000a2 __c.3561
     /tmp/ccy7KEuK.s:1618   .progmem.data:00000093 __c.3563
     /tmp/ccy7KEuK.s:1614   .progmem.data:00000088 __c.3565
     /tmp/ccy7KEuK.s:1610   .progmem.data:00000085 __c.3567
     /tmp/ccy7KEuK.s:1606   .progmem.data:0000007a __c.3569
     /tmp/ccy7KEuK.s:1602   .progmem.data:00000077 __c.3571
     /tmp/ccy7KEuK.s:1166   .text:00000414 netPrintTcpHeader
     /tmp/ccy7KEuK.s:1598   .progmem.data:0000006a __c.3577
     /tmp/ccy7KEuK.s:1594   .progmem.data:0000005b __c.3579
     /tmp/ccy7KEuK.s:1590   .progmem.data:0000004c __c.3581
     /tmp/ccy7KEuK.s:1586   .progmem.data:0000003d __c.3583
     /tmp/ccy7KEuK.s:1582   .progmem.data:0000002c __c.3585
     /tmp/ccy7KEuK.s:1578   .progmem.data:00000021 __c.3587
     /tmp/ccy7KEuK.s:1574   .progmem.data:0000001c __c.3589
     /tmp/ccy7KEuK.s:1570   .progmem.data:00000017 __c.3591
     /tmp/ccy7KEuK.s:1566   .progmem.data:00000012 __c.3593
     /tmp/ccy7KEuK.s:1562   .progmem.data:0000000d __c.3595
     /tmp/ccy7KEuK.s:1558   .progmem.data:00000008 __c.3597
     /tmp/ccy7KEuK.s:1554   .progmem.data:00000003 __c.3599
     /tmp/ccy7KEuK.s:1550   .progmem.data:00000000 __c.3601
                            *COM*:00000001 wwwport

UNDEFINED SYMBOLS
fprintf_P
__do_clear_bss
